target datalayout = "e-m:e-p270:32:32-p271:32:32-p272:64:64-i64:64-i128:128-f80:128-n8:16:32:64-S128"
target triple = "x86_64-pc-linux-gnu"

%struct.boxf = type { %struct.pointf_s, %struct.pointf_s }
%struct.pointf_s = type { double, double }
%struct.agxbuf = type { %union.anon }
%union.anon = type { %struct.anon }
%struct.anon = type { ptr, i64, i64, [7 x i8], i8 }
%struct.usershape_s = type { %struct.dtlink_s_, ptr, i32, i8, i8, ptr, i32, ptr, double, double, double, double, i32, ptr, i64, ptr }
%struct.dtlink_s_ = type { ptr, %union.anon.0 }
%union.anon.0 = type { ptr }
%struct.GVJ_s = type { ptr, ptr, ptr, ptr, ptr, ptr, i32, ptr, ptr, ptr, ptr, i64, i64, ptr, i32, %struct.gvplugin_active_render_s, %struct.gvplugin_active_device_s, %struct.gvplugin_active_loadimage_t, ptr, %struct.pointf_s, i8, ptr, i32, ptr, i8, ptr, i32, i32, i32, %struct.point, %struct.point, %struct.point, %struct.point, %struct.point, i32, %struct.boxf, %struct.pointf_s, %struct.boxf, %struct.boxf, %struct.pointf_s, %struct.pointf_s, double, i32, %struct.pointf_s, %struct.boxf, %struct.pointf_s, %struct.pointf_s, i32, i32, %struct.box, %struct.box, %struct.pointf_s, %struct.pointf_s, %struct.pointf_s, i8, i8, i8, i8, i8, i8, %struct.pointf_s, %struct.pointf_s, ptr, ptr, ptr, ptr, ptr, ptr, i64, ptr }
%struct.gvplugin_active_render_s = type { ptr, i32, ptr, ptr }
%struct.gvplugin_active_device_s = type { ptr, i32, ptr, ptr }
%struct.gvplugin_active_loadimage_t = type { ptr, i32, ptr }
%struct.point = type { i32, i32 }
%struct.box = type { %struct.point, %struct.point }
%struct.gvloadimage_engine_s = type { ptr }
%struct.gvplugin_available_s = type { ptr, ptr, i32, ptr, ptr }
%struct.gvplugin_installed_t = type { i32, ptr, i32, ptr, ptr }

@.str = private unnamed_addr constant [6 x i8] c"%s:%s\00", align 1
@.str.1 = private unnamed_addr constant [30 x i8] c"No loadimage plugin for \22%s\22\0A\00", align 1

; Function Attrs: inlinehint nounwind uwtable
define internal i64 @agxbsizeof(ptr noundef %0) #3 {
  %2 = alloca i64, align 8
  %3 = alloca ptr, align 8
  store ptr %0, ptr %3, align 8, !tbaa !44
  %4 = load ptr, ptr %3, align 8, !tbaa !44
  %5 = call zeroext i1 @agxbuf_is_inline(ptr noundef %4)
  br i1 %5, label %6, label %7

6:                                                ; preds = %1
  store i64 31, ptr %2, align 8
  br label %12

7:                                                ; preds = %1
  %8 = load ptr, ptr %3, align 8, !tbaa !44
  %9 = getelementptr inbounds nuw %struct.agxbuf, ptr %8, i32 0, i32 0
  %10 = getelementptr inbounds nuw %struct.anon, ptr %9, i32 0, i32 2
  %11 = load i64, ptr %10, align 8, !tbaa !56
  store i64 %11, ptr %2, align 8
  br label %12

12:                                               ; preds = %7, %6
  %13 = load i64, ptr %2, align 8
  ret i64 %13
}

; Function Attrs: inlinehint nounwind uwtable
define internal ptr @agxbstart(ptr noundef %0) #3 {
  %2 = alloca ptr, align 8
  store ptr %0, ptr %2, align 8, !tbaa !44
  %3 = load ptr, ptr %2, align 8, !tbaa !44
  %4 = call zeroext i1 @agxbuf_is_inline(ptr noundef %3)
  br i1 %4, label %5, label %9

5:                                                ; preds = %1
  %6 = load ptr, ptr %2, align 8, !tbaa !44
  %7 = getelementptr inbounds nuw %struct.agxbuf, ptr %6, i32 0, i32 0
  %8 = getelementptr inbounds [31 x i8], ptr %7, i64 0, i64 0
  br label %14

9:                                                ; preds = %1
  %10 = load ptr, ptr %2, align 8, !tbaa !44
  %11 = getelementptr inbounds nuw %struct.agxbuf, ptr %10, i32 0, i32 0
  %12 = getelementptr inbounds nuw %struct.anon, ptr %11, i32 0, i32 0
  %13 = load ptr, ptr %12, align 8, !tbaa !56
  br label %14

14:                                               ; preds = %9, %5
  %15 = phi ptr [ %8, %5 ], [ %13, %9 ]
  ret ptr %15
}

; Function Attrs: inlinehint nounwind uwtable
define internal void @agxbclear(ptr noundef %0) #3 {
  %2 = alloca ptr, align 8
  store ptr %0, ptr %2, align 8, !tbaa !44
  %3 = load ptr, ptr %2, align 8, !tbaa !44
  %4 = call zeroext i1 @agxbuf_is_inline(ptr noundef %3)
  br i1 %4, label %5, label %9

5:                                                ; preds = %1
  %6 = load ptr, ptr %2, align 8, !tbaa !44
  %7 = getelementptr inbounds nuw %struct.agxbuf, ptr %6, i32 0, i32 0
  %8 = getelementptr inbounds nuw %struct.anon, ptr %7, i32 0, i32 4
  store i8 0, ptr %8, align 1, !tbaa !56
  br label %13

9:                                                ; preds = %1
  %10 = load ptr, ptr %2, align 8, !tbaa !44
  %11 = getelementptr inbounds nuw %struct.agxbuf, ptr %10, i32 0, i32 0
  %12 = getelementptr inbounds nuw %struct.anon, ptr %11, i32 0, i32 1
  store i64 0, ptr %12, align 8, !tbaa !56
  br label %13

13:                                               ; preds = %9, %5
  ret void
}

; Function Attrs: inlinehint nounwind uwtable
define internal i32 @agxbputc(ptr noundef %0, i8 noundef signext %1) #3 {
  %3 = alloca ptr, align 8
  %4 = alloca i8, align 1
  %5 = alloca i64, align 8
  store ptr %0, ptr %3, align 8, !tbaa !44
  store i8 %1, ptr %4, align 1, !tbaa !56
  %6 = load ptr, ptr %3, align 8, !tbaa !44
  %7 = call i64 @agxblen(ptr noundef %6)
  %8 = load ptr, ptr %3, align 8, !tbaa !44
  %9 = call i64 @agxbsizeof(ptr noundef %8)
  %10 = icmp uge i64 %7, %9
  br i1 %10, label %11, label %13

11:                                               ; preds = %2
  %12 = load ptr, ptr %3, align 8, !tbaa !44
  call void @agxbmore(ptr noundef %12, i64 noundef 1)
  br label %13

13:                                               ; preds = %11, %2
  call void @llvm.lifetime.start.p0(i64 8, ptr %5) #12
  %14 = load ptr, ptr %3, align 8, !tbaa !44
  %15 = call i64 @agxblen(ptr noundef %14)
  store i64 %15, ptr %5, align 8, !tbaa !59
  %16 = load ptr, ptr %3, align 8, !tbaa !44
  %17 = call zeroext i1 @agxbuf_is_inline(ptr noundef %16)
  br i1 %17, label %18, label %29

18:                                               ; preds = %13
  %19 = load i8, ptr %4, align 1, !tbaa !56
  %20 = load ptr, ptr %3, align 8, !tbaa !44
  %21 = getelementptr inbounds nuw %struct.agxbuf, ptr %20, i32 0, i32 0
  %22 = load i64, ptr %5, align 8, !tbaa !59
  %23 = getelementptr inbounds nuw [31 x i8], ptr %21, i64 0, i64 %22
  store i8 %19, ptr %23, align 1, !tbaa !56
  %24 = load ptr, ptr %3, align 8, !tbaa !44
  %25 = getelementptr inbounds nuw %struct.agxbuf, ptr %24, i32 0, i32 0
  %26 = getelementptr inbounds nuw %struct.anon, ptr %25, i32 0, i32 4
  %27 = load i8, ptr %26, align 1, !tbaa !56
  %28 = add i8 %27, 1
  store i8 %28, ptr %26, align 1, !tbaa !56
  br label %42

29:                                               ; preds = %13
  %30 = load i8, ptr %4, align 1, !tbaa !56
  %31 = load ptr, ptr %3, align 8, !tbaa !44
  %32 = getelementptr inbounds nuw %struct.agxbuf, ptr %31, i32 0, i32 0
  %33 = getelementptr inbounds nuw %struct.anon, ptr %32, i32 0, i32 0
  %34 = load ptr, ptr %33, align 8, !tbaa !56
  %35 = load i64, ptr %5, align 8, !tbaa !59
  %36 = getelementptr inbounds nuw i8, ptr %34, i64 %35
  store i8 %30, ptr %36, align 1, !tbaa !56
  %37 = load ptr, ptr %3, align 8, !tbaa !44
  %38 = getelementptr inbounds nuw %struct.agxbuf, ptr %37, i32 0, i32 0
  %39 = getelementptr inbounds nuw %struct.anon, ptr %38, i32 0, i32 1
  %40 = load i64, ptr %39, align 8, !tbaa !56
  %41 = add i64 %40, 1
  store i64 %41, ptr %39, align 8, !tbaa !56
  br label %42

42:                                               ; preds = %29, %18
  call void @llvm.lifetime.end.p0(i64 8, ptr %5) #12
  ret i32 0
}

; Function Attrs: inlinehint nounwind uwtable
define internal i64 @agxblen(ptr noundef %0) #3 {
  %2 = alloca i64, align 8
  %3 = alloca ptr, align 8
  store ptr %0, ptr %3, align 8, !tbaa !44
  %4 = load ptr, ptr %3, align 8, !tbaa !44
  %5 = call zeroext i1 @agxbuf_is_inline(ptr noundef %4)
  br i1 %5, label %6, label %14

6:                                                ; preds = %1
  %7 = load ptr, ptr %3, align 8, !tbaa !44
  %8 = getelementptr inbounds nuw %struct.agxbuf, ptr %7, i32 0, i32 0
  %9 = getelementptr inbounds nuw %struct.anon, ptr %8, i32 0, i32 4
  %10 = load i8, ptr %9, align 1, !tbaa !56
  %11 = zext i8 %10 to i32
  %12 = sub nsw i32 %11, 0
  %13 = sext i32 %12 to i64
  store i64 %13, ptr %2, align 8
  br label %19

14:                                               ; preds = %1
  %15 = load ptr, ptr %3, align 8, !tbaa !44
  %16 = getelementptr inbounds nuw %struct.agxbuf, ptr %15, i32 0, i32 0
  %17 = getelementptr inbounds nuw %struct.anon, ptr %16, i32 0, i32 1
  %18 = load i64, ptr %17, align 8, !tbaa !56
  store i64 %18, ptr %2, align 8
  br label %19

19:                                               ; preds = %14, %6
  %20 = load i64, ptr %2, align 8
  ret i64 %20
}

; Function Attrs: inlinehint nounwind uwtable
define internal zeroext i1 @agxbuf_is_inline(ptr noundef %0) #3 {
  %2 = alloca ptr, align 8
  store ptr %0, ptr %2, align 8, !tbaa !44
  %3 = load ptr, ptr %2, align 8, !tbaa !44
  %4 = getelementptr inbounds nuw %struct.agxbuf, ptr %3, i32 0, i32 0
  %5 = getelementptr inbounds nuw %struct.anon, ptr %4, i32 0, i32 4
  %6 = load i8, ptr %5, align 1, !tbaa !56
  %7 = zext i8 %6 to i32
  %8 = icmp slt i32 %7, 255
  ret i1 %8
}

; Function Attrs: inlinehint nounwind uwtable
define internal void @agxbfree(ptr noundef %0) #3 {
  %2 = alloca ptr, align 8
  store ptr %0, ptr %2, align 8, !tbaa !44
  %3 = load ptr, ptr %2, align 8, !tbaa !44
  %4 = getelementptr inbounds nuw %struct.agxbuf, ptr %3, i32 0, i32 0
  %5 = getelementptr inbounds nuw %struct.anon, ptr %4, i32 0, i32 4
  %6 = load i8, ptr %5, align 1, !tbaa !56
  %7 = zext i8 %6 to i32
  %8 = icmp eq i32 %7, 255
  br i1 %8, label %9, label %14

9:                                                ; preds = %1
  %10 = load ptr, ptr %2, align 8, !tbaa !44
  %11 = getelementptr inbounds nuw %struct.agxbuf, ptr %10, i32 0, i32 0
  %12 = getelementptr inbounds nuw %struct.anon, ptr %11, i32 0, i32 0
  %13 = load ptr, ptr %12, align 8, !tbaa !56
  call void @free(ptr noundef %13) #12
  br label %14

14:                                               ; preds = %9, %1
  ret void
}

; Function Attrs: nounwind uwtable
define internal i32 @gvloadimage_select(ptr noundef %0, ptr noundef %1) #0 {
  %3 = alloca i32, align 4
  %4 = alloca ptr, align 8
  %5 = alloca ptr, align 8
  %6 = alloca ptr, align 8
  %7 = alloca ptr, align 8
  %8 = alloca i32, align 4
  store ptr %0, ptr %4, align 8, !tbaa !3
  store ptr %1, ptr %5, align 8, !tbaa !12
  call void @llvm.lifetime.start.p0(i64 8, ptr %6) #12
  call void @llvm.lifetime.start.p0(i64 8, ptr %7) #12
  %9 = load ptr, ptr %4, align 8, !tbaa !3
  %10 = getelementptr inbounds nuw %struct.GVJ_s, ptr %9, i32 0, i32 0
  %11 = load ptr, ptr %10, align 8, !tbaa !46
  %12 = load ptr, ptr %5, align 8, !tbaa !12
  %13 = call ptr @gvplugin_load(ptr noundef %11, i32 noundef 4, ptr noundef %12, ptr noundef null)
  store ptr %13, ptr %6, align 8, !tbaa !47
  %14 = load ptr, ptr %6, align 8, !tbaa !47
  %15 = icmp ne ptr %14, null
  br i1 %15, label %16, label %32

16:                                               ; preds = %2
  %17 = load ptr, ptr %6, align 8, !tbaa !47
  %18 = getelementptr inbounds nuw %struct.gvplugin_available_s, ptr %17, i32 0, i32 4
  %19 = load ptr, ptr %18, align 8, !tbaa !49
  store ptr %19, ptr %7, align 8, !tbaa !44
  %20 = load ptr, ptr %7, align 8, !tbaa !44
  %21 = getelementptr inbounds nuw %struct.gvplugin_installed_t, ptr %20, i32 0, i32 3
  %22 = load ptr, ptr %21, align 8, !tbaa !52
  %23 = load ptr, ptr %4, align 8, !tbaa !3
  %24 = getelementptr inbounds nuw %struct.GVJ_s, ptr %23, i32 0, i32 17
  %25 = getelementptr inbounds nuw %struct.gvplugin_active_loadimage_t, ptr %24, i32 0, i32 0
  store ptr %22, ptr %25, align 8, !tbaa !22
  %26 = load ptr, ptr %7, align 8, !tbaa !44
  %27 = getelementptr inbounds nuw %struct.gvplugin_installed_t, ptr %26, i32 0, i32 0
  %28 = load i32, ptr %27, align 8, !tbaa !54
  %29 = load ptr, ptr %4, align 8, !tbaa !3
  %30 = getelementptr inbounds nuw %struct.GVJ_s, ptr %29, i32 0, i32 17
  %31 = getelementptr inbounds nuw %struct.gvplugin_active_loadimage_t, ptr %30, i32 0, i32 1
  store i32 %28, ptr %31, align 8, !tbaa !55
  store i32 300, ptr %3, align 4
  store i32 1, ptr %8, align 4
  br label %33

32:                                               ; preds = %2
  store i32 999, ptr %3, align 4
  store i32 1, ptr %8, align 4
  br label %33

33:                                               ; preds = %32, %16
  call void @llvm.lifetime.end.p0(i64 8, ptr %7) #12
  call void @llvm.lifetime.end.p0(i64 8, ptr %6) #12
  %34 = load i32, ptr %3, align 4
  ret i32 %34
}

; Function Attrs: inlinehint nounwind uwtable
define internal ptr @agxbuse(ptr noundef %0) #3 {
  %2 = alloca ptr, align 8
  store ptr %0, ptr %2, align 8, !tbaa !44
  %3 = load ptr, ptr %2, align 8, !tbaa !44
  %4 = call zeroext i1 @agxbuf_is_inline(ptr noundef %3)
  br i1 %4, label %5, label %9

5:                                                ; preds = %1
  %6 = load ptr, ptr %2, align 8, !tbaa !44
  %7 = call i64 @agxblen(ptr noundef %6)
  %8 = icmp ne i64 %7, 31
  br i1 %8, label %9, label %12

9:                                                ; preds = %5, %1
  %10 = load ptr, ptr %2, align 8, !tbaa !44
  %11 = call i32 @agxbputc(ptr noundef %10, i8 noundef signext 0)
  br label %13

12:                                               ; preds = %5
  br label %13

13:                                               ; preds = %12, %9
  %14 = load ptr, ptr %2, align 8, !tbaa !44
  call void @agxbclear(ptr noundef %14)
  %15 = load ptr, ptr %2, align 8, !tbaa !44
  %16 = call ptr @agxbstart(ptr noundef %15)
  ret ptr %16
}

; Function Attrs: nounwind uwtable
define void @gvloadimage(ptr noundef %0, ptr noundef %1, ptr noundef byval(%struct.boxf) align 8 %2, i1 noundef zeroext %3, ptr noundef %4) #0 {
  %6 = alloca ptr, align 8
  %7 = alloca ptr, align 8
  %8 = alloca i8, align 1
  %9 = alloca ptr, align 8
  %10 = alloca ptr, align 8
  %11 = alloca %struct.agxbuf, align 8
  %12 = alloca ptr, align 8
  store ptr %0, ptr %6, align 8, !tbaa !3
  store ptr %1, ptr %7, align 8, !tbaa !8
  %13 = zext i1 %3 to i8
  store i8 %13, ptr %8, align 1, !tbaa !10
  store ptr %4, ptr %9, align 8, !tbaa !12
  call void @llvm.lifetime.start.p0(i64 8, ptr %10) #12
  call void @llvm.lifetime.start.p0(i64 32, ptr %11) #12
  call void @llvm.memset.p0.i64(ptr align 8 %11, i8 0, i64 32, i1 false)
  %14 = load ptr, ptr %7, align 8, !tbaa !8
  %15 = getelementptr inbounds nuw %struct.usershape_s, ptr %14, i32 0, i32 7
  %16 = load ptr, ptr %15, align 8, !tbaa !14
  %17 = load ptr, ptr %9, align 8, !tbaa !12
  %18 = call i32 (ptr, ptr, ...) @agxbprint(ptr noundef %11, ptr noundef @.str, ptr noundef %16, ptr noundef %17)
  call void @llvm.lifetime.start.p0(i64 8, ptr %12) #12
  %19 = call ptr @agxbuse(ptr noundef %11)
  store ptr %19, ptr %12, align 8, !tbaa !12
  %20 = load ptr, ptr %6, align 8, !tbaa !3
  %21 = load ptr, ptr %12, align 8, !tbaa !12
  %22 = call i32 @gvloadimage_select(ptr noundef %20, ptr noundef %21)
  %23 = icmp eq i32 %22, 999
  br i1 %23, label %24, label %26

24:                                               ; preds = %5
  %25 = load ptr, ptr %12, align 8, !tbaa !12
  call void (ptr, ...) @agwarningf(ptr noundef @.str.1, ptr noundef %25)
  br label %26

26:                                               ; preds = %24, %5
  %27 = load ptr, ptr %6, align 8, !tbaa !3
  %28 = getelementptr inbounds nuw %struct.GVJ_s, ptr %27, i32 0, i32 17
  %29 = getelementptr inbounds nuw %struct.gvplugin_active_loadimage_t, ptr %28, i32 0, i32 0
  %30 = load ptr, ptr %29, align 8, !tbaa !22
  store ptr %30, ptr %10, align 8, !tbaa !39
  %31 = icmp ne ptr %30, null
  br i1 %31, label %32, label %45

32:                                               ; preds = %26
  %33 = load ptr, ptr %10, align 8, !tbaa !39
  %34 = getelementptr inbounds nuw %struct.gvloadimage_engine_s, ptr %33, i32 0, i32 0
  %35 = load ptr, ptr %34, align 8, !tbaa !40
  %36 = icmp ne ptr %35, null
  br i1 %36, label %37, label %45

37:                                               ; preds = %32
  %38 = load ptr, ptr %10, align 8, !tbaa !39
  %39 = getelementptr inbounds nuw %struct.gvloadimage_engine_s, ptr %38, i32 0, i32 0
  %40 = load ptr, ptr %39, align 8, !tbaa !40
  %41 = load ptr, ptr %6, align 8, !tbaa !3
  %42 = load ptr, ptr %7, align 8, !tbaa !8
  %43 = load i8, ptr %8, align 1, !tbaa !10, !range !42, !noundef !43
  %44 = trunc i8 %43 to i1
  call void %40(ptr noundef %41, ptr noundef %42, ptr noundef byval(%struct.boxf) align 8 %2, i1 noundef zeroext %44)
  br label %45

45:                                               ; preds = %37, %32, %26
  call void @agxbfree(ptr noundef %11)
  call void @llvm.lifetime.end.p0(i64 8, ptr %12) #12
  call void @llvm.lifetime.end.p0(i64 32, ptr %11) #12
  call void @llvm.lifetime.end.p0(i64 8, ptr %10) #12
  ret void
}