; Function Attrs: nounwind uwtable
define void @gvloadimage(ptr noundef %0, ptr noundef %1, ptr noundef readonly byval(%struct.boxf) align 8 captures(none) %2, i1 noundef zeroext %3, ptr noundef %4) local_unnamed_addr #0 {
  %6 = alloca %struct.agxbuf, align 8
  call void @llvm.lifetime.start.p0(i64 32, ptr nonnull %6) #14
  call void @llvm.memset.p0.i64(ptr noundef nonnull align 8 dereferenceable(32) %6, i8 0, i64 32, i1 false)
  %7 = getelementptr inbounds nuw i8, ptr %1, i64 48
  %8 = load ptr, ptr %7, align 8, !tbaa !3
  call void (ptr, ptr, ...) @agxbprint(ptr noundef %6, ptr nonnull poison, ptr noundef %8, ptr noundef %4)
  %9 = getelementptr inbounds nuw i8, ptr %6, i64 31
  %.val.i = load i8, ptr %9, align 1, !tbaa !16
  switch i8 %.val.i, label %agxblen.exit.i.i [
    i8 -1, label %11
    i8 31, label %agxbclear.exit.thread.i
  ]

agxblen.exit.i.i:                                 ; preds = %5
  %10 = zext i8 %.val.i to i64
  br label %agxbsizeof.exit.i.i

11:                                               ; preds = %5
  %12 = getelementptr inbounds nuw i8, ptr %6, i64 8
  %13 = load i64, ptr %12, align 8, !tbaa !16
  %14 = getelementptr inbounds nuw i8, ptr %6, i64 16
  %15 = load i64, ptr %14, align 8, !tbaa !16
  br label %agxbsizeof.exit.i.i

agxbsizeof.exit.i.i:                              ; preds = %11, %agxblen.exit.i.i
  %.0.i20.i.i = phi i64 [ %13, %11 ], [ %10, %agxblen.exit.i.i ]
  %.0.i14.i.i = phi i64 [ %15, %11 ], [ 31, %agxblen.exit.i.i ]
  %.not.i5.i = icmp ult i64 %.0.i20.i.i, %.0.i14.i.i
  br i1 %.not.i5.i, label %17, label %16

16:                                               ; preds = %agxbsizeof.exit.i.i
  call fastcc void @agxbmore(ptr noundef nonnull %6, i64 noundef 1)
  %.val.i15.pre.i.i = load i8, ptr %9, align 1, !tbaa !16
  br label %17

17:                                               ; preds = %16, %agxbsizeof.exit.i.i
  %.val.i6.pr.i = phi i8 [ %.val.i15.pre.i.i, %16 ], [ %.val.i, %agxbsizeof.exit.i.i ]
  %.not.i16.i.i = icmp eq i8 %.val.i6.pr.i, -1
  br i1 %.not.i16.i.i, label %agxbputc.exit.i.thread, label %agxbputc.exit.i

agxbputc.exit.i.thread:                           ; preds = %17
  %18 = getelementptr inbounds nuw i8, ptr %6, i64 8
  %19 = load i64, ptr %18, align 8, !tbaa !16
  %20 = load ptr, ptr %6, align 8, !tbaa !16
  %21 = getelementptr inbounds nuw i8, ptr %20, i64 %19
  store i8 0, ptr %21, align 1, !tbaa !16
  br label %27

agxbputc.exit.i:                                  ; preds = %17
  %22 = zext i8 %.val.i6.pr.i to i64
  %23 = getelementptr inbounds nuw [31 x i8], ptr %6, i64 0, i64 %22
  store i8 0, ptr %23, align 1, !tbaa !16
  %24 = load i8, ptr %9, align 1, !tbaa !16
  %25 = add i8 %24, 1
  store i8 %25, ptr %9, align 1, !tbaa !16
  %26 = icmp eq i8 %25, -1
  br i1 %26, label %27, label %agxbclear.exit.thread.i

agxbclear.exit.thread.i:                          ; preds = %agxbputc.exit.i, %5
  store i8 0, ptr %9, align 1, !tbaa !16
  br label %agxbuse.exit

27:                                               ; preds = %agxbputc.exit.i.thread, %agxbputc.exit.i
  %28 = getelementptr inbounds nuw i8, ptr %6, i64 8
  store i64 0, ptr %28, align 8, !tbaa !16
  %29 = load ptr, ptr %6, align 8, !tbaa !16
  br label %agxbuse.exit

agxbuse.exit:                                     ; preds = %agxbclear.exit.thread.i, %27
  %30 = phi ptr [ %29, %27 ], [ %6, %agxbclear.exit.thread.i ]
  %31 = load ptr, ptr %0, align 8, !tbaa !17
  %32 = call ptr @gvplugin_load(ptr noundef %31, i32 noundef 4, ptr noundef %30, ptr noundef null) #14
  %.not.i = icmp eq ptr %32, null
  br i1 %.not.i, label %40, label %gvloadimage_select.exit

gvloadimage_select.exit:                          ; preds = %agxbuse.exit
  %33 = getelementptr inbounds nuw i8, ptr %32, i64 32
  %34 = load ptr, ptr %33, align 8, !tbaa !35
  %35 = getelementptr inbounds nuw i8, ptr %34, i64 24
  %36 = load ptr, ptr %35, align 8, !tbaa !39
  %37 = getelementptr inbounds nuw i8, ptr %0, i64 184
  store ptr %36, ptr %37, align 8, !tbaa !41
  %38 = load i32, ptr %34, align 8, !tbaa !42
  %39 = getelementptr inbounds nuw i8, ptr %0, i64 192
  store i32 %38, ptr %39, align 8, !tbaa !43
  br label %41

40:                                               ; preds = %agxbuse.exit
  call void (ptr, ...) @agwarningf(ptr noundef nonnull @.str.1, ptr noundef %30) #14
  %.phi.trans.insert = getelementptr inbounds nuw i8, ptr %0, i64 184
  %.pre = load ptr, ptr %.phi.trans.insert, align 8, !tbaa !41
  br label %41

41:                                               ; preds = %gvloadimage_select.exit, %40
  %42 = phi ptr [ %36, %gvloadimage_select.exit ], [ %.pre, %40 ]
  %.not = icmp eq ptr %42, null
  br i1 %.not, label %46, label %43

43:                                               ; preds = %41
  %44 = load ptr, ptr %42, align 8, !tbaa !44
  %.not11 = icmp eq ptr %44, null
  br i1 %.not11, label %46, label %45

45:                                               ; preds = %43
  call void %44(ptr noundef nonnull %0, ptr noundef nonnull %1, ptr noundef nonnull byval(%struct.boxf) align 8 %2, i1 noundef zeroext %3) #14
  br label %46

46:                                               ; preds = %45, %43, %41
  %.val12 = load i8, ptr %9, align 1, !tbaa !16
  %47 = icmp eq i8 %.val12, -1
  br i1 %47, label %48, label %agxbfree.exit

48:                                               ; preds = %46
  %.val = load ptr, ptr %6, align 8
  call void @free(ptr noundef %.val) #14
  br label %agxbfree.exit

agxbfree.exit:                                    ; preds = %46, %48
  call void @llvm.lifetime.end.p0(i64 32, ptr nonnull %6) #14
  ret void
}